; Function Attrs: mustprogress uwtable
define internal noundef i64 @_ZN3net12_GLOBAL__N_123HeaderTableDebugVisitor10OnNewEntryERKNS_10HpackEntryE(ptr noundef nonnull readonly align 8 captures(none) dereferenceable(24) %0, ptr nonnull readnone align 8 captures(none) %1) unnamed_addr #4 align 2 {
  %3 = getelementptr inbounds nuw i8, ptr %0, i64 8
  %4 = load ptr, ptr %3, align 8, !tbaa !387
  %5 = load ptr, ptr %4, align 8, !tbaa !3
  %6 = getelementptr inbounds nuw i8, ptr %5, i64 16
  %7 = load ptr, ptr %6, align 8
  %8 = tail call i64 %7(ptr noundef nonnull align 8 dereferenceable(8) %4)
  ret i64 %8
}